; Function Attrs: mustprogress uwtable
define void @_ZNK32pxrInternal_v0_24__pxrReserved__12PcpPrimIndex12GetNodeRangeENS_12PcpRangeTypeE(ptr dead_on_unwind noalias nocapture writable writeonly sret(%"struct.std::pair") align 8 %0, ptr nocapture noundef nonnull readonly align 8 dereferenceable(40) %1, i32 noundef %2) local_unnamed_addr #3 align 2 {
  %4 = load ptr, ptr %1, align 8
  %5 = icmp eq ptr %4, null
  br i1 %5, label %6, label %_ZNK32pxrInternal_v0_24__pxrReserved__8TfRefPtrINS_18PcpPrimIndex_GraphEEptEv.exit

6:                                                ; preds = %3
  %7 = getelementptr inbounds nuw i8, ptr %0, i64 8
  store i64 0, ptr %0, align 8
  store i64 -1, ptr %7, align 8
  br label %12

_ZNK32pxrInternal_v0_24__pxrReserved__8TfRefPtrINS_18PcpPrimIndex_GraphEEptEv.exit: ; preds = %3
  %8 = tail call { i64, i64 } @_ZNK32pxrInternal_v0_24__pxrReserved__18PcpPrimIndex_Graph22GetNodeIndexesForRangeENS_12PcpRangeTypeE(ptr noundef nonnull align 8 dereferenceable(57) %4, i32 noundef %2)
  %9 = extractvalue { i64, i64 } %8, 0
  %10 = extractvalue { i64, i64 } %8, 1
  %11 = load ptr, ptr %1, align 8
  store ptr %11, ptr %0, align 8
  %.sroa.22.0..sroa_idx = getelementptr inbounds i8, ptr %0, i64 8
  store i64 %9, ptr %.sroa.22.0..sroa_idx, align 8
  br label %12

12:                                               ; preds = %_ZNK32pxrInternal_v0_24__pxrReserved__8TfRefPtrINS_18PcpPrimIndex_GraphEEptEv.exit, %6
  %.sink3 = phi ptr [ null, %6 ], [ %11, %_ZNK32pxrInternal_v0_24__pxrReserved__8TfRefPtrINS_18PcpPrimIndex_GraphEEptEv.exit ]
  %.sink = phi i64 [ -1, %6 ], [ %10, %_ZNK32pxrInternal_v0_24__pxrReserved__8TfRefPtrINS_18PcpPrimIndex_GraphEEptEv.exit ]
  %13 = getelementptr inbounds nuw i8, ptr %0, i64 16
  store ptr %.sink3, ptr %13, align 8
  %14 = getelementptr inbounds i8, ptr %0, i64 24
  store i64 %.sink, ptr %14, align 8
  ret void
}